; Function Attrs: mustprogress uwtable
define dso_local noundef i32 @_ZN19cmCPackDebGenerator12PackageFilesEv(ptr noundef nonnull align 8 dereferenceable(384) %0) unnamed_addr #3 align 2 personality ptr @__gxx_personality_v0 {
  %2 = alloca %"class.std::__cxx11::basic_string", align 8
  %3 = alloca %"class.std::allocator", align 1
  %4 = alloca %"class.std::__cxx11::basic_string", align 8
  %5 = alloca %"class.std::allocator", align 1
  %6 = load ptr, ptr %0, align 8
  %7 = getelementptr inbounds i8, ptr %6, i64 200
  %8 = load ptr, ptr %7, align 8
  %9 = tail call noundef zeroext i1 %8(ptr noundef nonnull align 8 dereferenceable(360) %0)
  br i1 %9, label %10, label %27

10:                                               ; preds = %1
  %11 = getelementptr inbounds i8, ptr %0, i64 328
  %12 = load i32, ptr %11, align 8
  %13 = icmp eq i32 %12, 0
  br i1 %13, label %14, label %24

14:                                               ; preds = %10
  call void @_ZNSaIcEC1Ev(ptr noundef nonnull align 1 dereferenceable(1) %3) #19
  %15 = invoke noundef ptr @_ZNSt7__cxx1112basic_stringIcSt11char_traitsIcESaIcEE13_M_local_dataEv(ptr noundef nonnull align 8 dereferenceable(32) %2)
          to label %.noexc unwind label %20

.noexc:                                           ; preds = %14
  invoke void @_ZNSt7__cxx1112basic_stringIcSt11char_traitsIcESaIcEE12_Alloc_hiderC1EPcRKS3_(ptr noundef nonnull align 8 dereferenceable(8) %2, ptr noundef %15, ptr noundef nonnull align 1 dereferenceable(1) %3)
          to label %.noexc12 unwind label %20

.noexc12:                                         ; preds = %.noexc
  invoke void @_ZNSt7__cxx1112basic_stringIcSt11char_traitsIcESaIcEE12_M_constructIPKcEEvT_S8_St20forward_iterator_tag(ptr noundef nonnull align 8 dereferenceable(32) %2, ptr noundef nonnull @.str.19, ptr noundef nonnull getelementptr inbounds ([22 x i8], ptr @.str.19, i64 0, i64 21))
          to label %_ZNSt7__cxx1112basic_stringIcSt11char_traitsIcESaIcEEC2IS3_EEPKcRKS3_.exit unwind label %16

16:                                               ; preds = %.noexc12
  %17 = landingpad { ptr, i32 }
          cleanup
  call void @_ZNSaIcED2Ev(ptr noundef nonnull align 1 dereferenceable(1) %2) #19
  br label %.body

_ZNSt7__cxx1112basic_stringIcSt11char_traitsIcESaIcEEC2IS3_EEPKcRKS3_.exit: ; preds = %.noexc12
  %18 = invoke noundef i32 @_ZN19cmCPackDebGenerator25PackageComponentsAllInOneERKNSt7__cxx1112basic_stringIcSt11char_traitsIcESaIcEEE(ptr noundef nonnull align 8 dereferenceable(384) %0, ptr noundef nonnull align 8 dereferenceable(32) %2)
          to label %19 unwind label %22, !range !16

19:                                               ; preds = %_ZNSt7__cxx1112basic_stringIcSt11char_traitsIcESaIcEEC2IS3_EEPKcRKS3_.exit
  call void @_ZNSt7__cxx1112basic_stringIcSt11char_traitsIcESaIcEED1Ev(ptr noundef nonnull align 8 dereferenceable(32) %2) #19
  call void @_ZNSaIcED1Ev(ptr noundef nonnull align 1 dereferenceable(1) %3) #19
  br label %37

20:                                               ; preds = %.noexc, %14
  %21 = landingpad { ptr, i32 }
          cleanup
  br label %.body

22:                                               ; preds = %_ZNSt7__cxx1112basic_stringIcSt11char_traitsIcESaIcEEC2IS3_EEPKcRKS3_.exit
  %23 = landingpad { ptr, i32 }
          cleanup
  call void @_ZNSt7__cxx1112basic_stringIcSt11char_traitsIcESaIcEED1Ev(ptr noundef nonnull align 8 dereferenceable(32) %2) #19
  br label %.body

24:                                               ; preds = %10
  %25 = icmp eq i32 %12, 1
  %26 = tail call noundef i32 @_ZN19cmCPackDebGenerator17PackageComponentsEb(ptr noundef nonnull align 8 dereferenceable(384) %0, i1 noundef zeroext %25), !range !16
  br label %37

27:                                               ; preds = %1
  call void @_ZNSaIcEC1Ev(ptr noundef nonnull align 1 dereferenceable(1) %5) #19
  %28 = invoke noundef ptr @_ZNSt7__cxx1112basic_stringIcSt11char_traitsIcESaIcEE13_M_local_dataEv(ptr noundef nonnull align 8 dereferenceable(32) %4)
          to label %.noexc13 unwind label %33

.noexc13:                                         ; preds = %27
  invoke void @_ZNSt7__cxx1112basic_stringIcSt11char_traitsIcESaIcEE12_Alloc_hiderC1EPcRKS3_(ptr noundef nonnull align 8 dereferenceable(8) %4, ptr noundef %28, ptr noundef nonnull align 1 dereferenceable(1) %5)
          to label %.noexc14 unwind label %33

.noexc14:                                         ; preds = %.noexc13
  invoke void @_ZNSt7__cxx1112basic_stringIcSt11char_traitsIcESaIcEE12_M_constructIPKcEEvT_S8_St20forward_iterator_tag(ptr noundef nonnull align 8 dereferenceable(32) %4, ptr noundef nonnull @.str.20, ptr noundef nonnull @.str.20)
          to label %_ZNSt7__cxx1112basic_stringIcSt11char_traitsIcESaIcEEC2IS3_EEPKcRKS3_.exit17 unwind label %29

29:                                               ; preds = %.noexc14
  %30 = landingpad { ptr, i32 }
          cleanup
  call void @_ZNSaIcED2Ev(ptr noundef nonnull align 1 dereferenceable(1) %4) #19
  br label %.body

_ZNSt7__cxx1112basic_stringIcSt11char_traitsIcESaIcEEC2IS3_EEPKcRKS3_.exit17: ; preds = %.noexc14
  %31 = invoke noundef i32 @_ZN19cmCPackDebGenerator25PackageComponentsAllInOneERKNSt7__cxx1112basic_stringIcSt11char_traitsIcESaIcEEE(ptr noundef nonnull align 8 dereferenceable(384) %0, ptr noundef nonnull align 8 dereferenceable(32) %4)
          to label %32 unwind label %35, !range !16

32:                                               ; preds = %_ZNSt7__cxx1112basic_stringIcSt11char_traitsIcESaIcEEC2IS3_EEPKcRKS3_.exit17
  call void @_ZNSt7__cxx1112basic_stringIcSt11char_traitsIcESaIcEED1Ev(ptr noundef nonnull align 8 dereferenceable(32) %4) #19
  call void @_ZNSaIcED1Ev(ptr noundef nonnull align 1 dereferenceable(1) %5) #19
  br label %37

33:                                               ; preds = %.noexc13, %27
  %34 = landingpad { ptr, i32 }
          cleanup
  br label %.body

35:                                               ; preds = %_ZNSt7__cxx1112basic_stringIcSt11char_traitsIcESaIcEEC2IS3_EEPKcRKS3_.exit17
  %36 = landingpad { ptr, i32 }
          cleanup
  call void @_ZNSt7__cxx1112basic_stringIcSt11char_traitsIcESaIcEED1Ev(ptr noundef nonnull align 8 dereferenceable(32) %4) #19
  br label %.body

37:                                               ; preds = %32, %24, %19
  %.06 = phi i32 [ %18, %19 ], [ %26, %24 ], [ %31, %32 ]
  ret i32 %.06

.body:                                            ; preds = %35, %29, %33, %22, %16, %20
  %.sink = phi ptr [ %3, %20 ], [ %3, %16 ], [ %3, %22 ], [ %5, %33 ], [ %5, %29 ], [ %5, %35 ]
  %.pn9.pn = phi { ptr, i32 } [ %21, %20 ], [ %17, %16 ], [ %23, %22 ], [ %34, %33 ], [ %30, %29 ], [ %36, %35 ]
  call void @_ZNSaIcED1Ev(ptr noundef nonnull align 1 dereferenceable(1) %.sink) #19
  resume { ptr, i32 } %.pn9.pn
}